; Function Attrs: nounwind uwtable
define dso_local void @reftable_addition_destroy(ptr noundef %0) local_unnamed_addr #0 {
  %.not = icmp eq ptr %0, null
  br i1 %.not, label %3, label %2

2:                                                ; preds = %1
  tail call fastcc void @reftable_addition_close(ptr noundef nonnull %0)
  tail call void @reftable_free(ptr noundef nonnull %0) #16
  br label %3

3:                                                ; preds = %1, %2
  ret void
}